; ModuleID = '60/619.c'
source_filename = "60/619.c"
target datalayout = "e-m:e-p270:32:32-p271:32:32-p272:64:64-i64:64-f80:128-n8:16:32:64-S128"
target triple = "x86_64-pc-linux-gnu"

@.str = private unnamed_addr constant [3 x i8] c"%d\00", align 1
@.str.1 = private unnamed_addr constant [6 x i8] c"empty\00", align 1
@.str.2 = private unnamed_addr constant [7 x i8] c"%d %d\0A\00", align 1

; Function Attrs: noinline nounwind uwtable
define dso_local i32 @main() #0 {
  %1 = alloca i32, align 4
  %2 = alloca i32, align 4
  %3 = alloca i32, align 4
  %4 = alloca i32, align 4
  %5 = alloca i32, align 4
  %6 = alloca i32, align 4
  %7 = alloca i32, align 4
  store i32 0, i32* %1, align 4
  %8 = call i32 (i8*, ...) @__isoc99_scanf(i8* getelementptr inbounds ([3 x i8], [3 x i8]* @.str, i64 0, i64 0), i32* %2)
  %9 = load i32, i32* %2, align 4
  %10 = icmp slt i32 %9, 5
  br i1 %10, label %11, label %13

11:                                               ; preds = %0
  %12 = call i32 (i8*, ...) @printf(i8* getelementptr inbounds ([6 x i8], [6 x i8]* @.str.1, i64 0, i64 0))
  br label %79

13:                                               ; preds = %0
  store i32 3, i32* %5, align 4
  br label %14

14:                                               ; preds = %75, %13
  %15 = load i32, i32* %5, align 4
  %16 = load i32, i32* %2, align 4
  %17 = sub nsw i32 %16, 1
  %18 = icmp slt i32 %15, %17
  br i1 %18, label %19, label %78

19:                                               ; preds = %14
  %20 = load i32, i32* %5, align 4
  %21 = sitofp i32 %20 to double
  %22 = call double @sqrt(double %21) #3
  %23 = fptosi double %22 to i32
  store i32 %23, i32* %3, align 4
  store i32 2, i32* %6, align 4
  br label %24

24:                                               ; preds = %35, %19
  %25 = load i32, i32* %6, align 4
  %26 = load i32, i32* %3, align 4
  %27 = icmp sle i32 %25, %26
  br i1 %27, label %28, label %38

28:                                               ; preds = %24
  %29 = load i32, i32* %5, align 4
  %30 = load i32, i32* %6, align 4
  %31 = srem i32 %29, %30
  %32 = icmp eq i32 %31, 0
  br i1 %32, label %33, label %34

33:                                               ; preds = %28
  br label %38

34:                                               ; preds = %28
  br label %35

35:                                               ; preds = %34
  %36 = load i32, i32* %6, align 4
  %37 = add nsw i32 %36, 1
  store i32 %37, i32* %6, align 4
  br label %24

38:                                               ; preds = %33, %24
  %39 = load i32, i32* %6, align 4
  %40 = load i32, i32* %3, align 4
  %41 = add nsw i32 %40, 1
  %42 = icmp eq i32 %39, %41
  br i1 %42, label %43, label %75

43:                                               ; preds = %38
  %44 = load i32, i32* %5, align 4
  %45 = add nsw i32 %44, 2
  %46 = sitofp i32 %45 to double
  %47 = call double @sqrt(double %46) #3
  %48 = fptosi double %47 to i32
  store i32 %48, i32* %4, align 4
  store i32 2, i32* %6, align 4
  %49 = load i32, i32* %5, align 4
  %50 = add nsw i32 %49, 2
  store i32 %50, i32* %7, align 4
  store i32 2, i32* %6, align 4
  br label %51

51:                                               ; preds = %62, %43
  %52 = load i32, i32* %6, align 4
  %53 = load i32, i32* %4, align 4
  %54 = icmp sle i32 %52, %53
  br i1 %54, label %55, label %65

55:                                               ; preds = %51
  %56 = load i32, i32* %7, align 4
  %57 = load i32, i32* %6, align 4
  %58 = srem i32 %56, %57
  %59 = icmp eq i32 %58, 0
  br i1 %59, label %60, label %61

60:                                               ; preds = %55
  br label %65

61:                                               ; preds = %55
  br label %62

62:                                               ; preds = %61
  %63 = load i32, i32* %6, align 4
  %64 = add nsw i32 %63, 1
  store i32 %64, i32* %6, align 4
  br label %51

65:                                               ; preds = %60, %51
  %66 = load i32, i32* %6, align 4
  %67 = load i32, i32* %4, align 4
  %68 = add nsw i32 %67, 1
  %69 = icmp eq i32 %66, %68
  br i1 %69, label %70, label %74

70:                                               ; preds = %65
  %71 = load i32, i32* %5, align 4
  %72 = load i32, i32* %7, align 4
  %73 = call i32 (i8*, ...) @printf(i8* getelementptr inbounds ([7 x i8], [7 x i8]* @.str.2, i64 0, i64 0), i32 %71, i32 %72)
  br label %74

74:                                               ; preds = %70, %65
  br label %75

75:                                               ; preds = %74, %38
  %76 = load i32, i32* %5, align 4
  %77 = add nsw i32 %76, 2
  store i32 %77, i32* %5, align 4
  br label %14

78:                                               ; preds = %14
  br label %79

79:                                               ; preds = %78, %11
  %80 = load i32, i32* %1, align 4
  ret i32 %80
}

declare dso_local i32 @__isoc99_scanf(i8*, ...) #1

declare dso_local i32 @printf(i8*, ...) #1

; Function Attrs: nounwind
declare dso_local double @sqrt(double) #2


!llvm.module.flags = !{!0}
!llvm.ident = !{!1}

!0 = !{i32 1, !"wchar_size", i32 4}
!1 = !{!"clang version 10.0.0-4ubuntu1 "}
