; ModuleID = 'source-C-CXX/59/619.c'
source_filename = "source-C-CXX/59/619.c"
target datalayout = "e-m:e-p270:32:32-p271:32:32-p272:64:64-i64:64-f80:128-n8:16:32:64-S128"
target triple = "x86_64-pc-linux-gnu"

@.str = private unnamed_addr constant [3 x i8] c"%d\00", align 1
@.str.1 = private unnamed_addr constant [6 x i8] c"empty\00", align 1
@.str.2 = private unnamed_addr constant [7 x i8] c"%d %d\0A\00", align 1

; Function Attrs: nofree nounwind sspstrong uwtable
define dso_local i32 @main() local_unnamed_addr #0 {
  %1 = alloca i32, align 4
  %2 = bitcast i32* %1 to i8*
  call void @llvm.lifetime.start.p0i8(i64 4, i8* nonnull %2) #4
  %3 = call i32 (i8*, ...) @__isoc99_scanf(i8* getelementptr inbounds ([3 x i8], [3 x i8]* @.str, i64 0, i64 0), i32* nonnull %1)
  %4 = load i32, i32* %1, align 4, !tbaa !5
  %5 = icmp slt i32 %4, 5
  br i1 %5, label %6, label %8

6:                                                ; preds = %0
  %7 = call i32 (i8*, ...) @printf(i8* nonnull dereferenceable(1) getelementptr inbounds ([6 x i8], [6 x i8]* @.str.1, i64 0, i64 0))
  br label %51

8:                                                ; preds = %0, %46
  %9 = phi i32 [ %47, %46 ], [ 3, %0 ]
  %10 = sitofp i32 %9 to double
  %11 = call double @sqrt(double %10) #4
  %12 = fptosi double %11 to i32
  %13 = icmp slt i32 %12, 2
  %14 = add i32 %12, 1
  br i1 %13, label %22, label %15

15:                                               ; preds = %8, %19
  %16 = phi i32 [ %20, %19 ], [ 2, %8 ]
  %17 = urem i32 %9, %16
  %18 = icmp eq i32 %17, 0
  br i1 %18, label %22, label %19

19:                                               ; preds = %15
  %20 = add nuw i32 %16, 1
  %21 = icmp eq i32 %16, %12
  br i1 %21, label %27, label %15, !llvm.loop !9

22:                                               ; preds = %15, %8
  %23 = phi i32 [ 2, %8 ], [ %16, %15 ]
  %24 = icmp eq i32 %23, %14
  br i1 %24, label %27, label %25

25:                                               ; preds = %22
  %26 = add nuw nsw i32 %9, 2
  br label %46

27:                                               ; preds = %19, %22
  %28 = add nuw nsw i32 %9, 2
  %29 = sitofp i32 %28 to double
  %30 = call double @sqrt(double %29) #4
  %31 = fptosi double %30 to i32
  %32 = icmp slt i32 %31, 2
  %33 = add i32 %31, 1
  br i1 %32, label %41, label %34

34:                                               ; preds = %27, %38
  %35 = phi i32 [ %39, %38 ], [ 2, %27 ]
  %36 = urem i32 %28, %35
  %37 = icmp eq i32 %36, 0
  br i1 %37, label %41, label %38

38:                                               ; preds = %34
  %39 = add nuw i32 %35, 1
  %40 = icmp eq i32 %35, %31
  br i1 %40, label %44, label %34, !llvm.loop !11

41:                                               ; preds = %34, %27
  %42 = phi i32 [ 2, %27 ], [ %35, %34 ]
  %43 = icmp eq i32 %42, %33
  br i1 %43, label %44, label %46

44:                                               ; preds = %38, %41
  %45 = call i32 (i8*, ...) @printf(i8* nonnull dereferenceable(1) getelementptr inbounds ([7 x i8], [7 x i8]* @.str.2, i64 0, i64 0), i32 %9, i32 %28)
  br label %46

46:                                               ; preds = %25, %41, %44
  %47 = phi i32 [ %26, %25 ], [ %28, %41 ], [ %28, %44 ]
  %48 = load i32, i32* %1, align 4, !tbaa !5
  %49 = add nsw i32 %48, -1
  %50 = icmp slt i32 %47, %49
  br i1 %50, label %8, label %51, !llvm.loop !12

51:                                               ; preds = %46, %6
  call void @llvm.lifetime.end.p0i8(i64 4, i8* nonnull %2) #4
  ret i32 0
}

; Function Attrs: argmemonly mustprogress nofree nosync nounwind willreturn
declare void @llvm.lifetime.start.p0i8(i64 immarg, i8* nocapture) #1

; Function Attrs: nofree nounwind
declare noundef i32 @__isoc99_scanf(i8* nocapture noundef readonly, ...) local_unnamed_addr #2

; Function Attrs: nofree nounwind
declare noundef i32 @printf(i8* nocapture noundef readonly, ...) local_unnamed_addr #2

; Function Attrs: mustprogress nofree nounwind willreturn
declare double @sqrt(double) local_unnamed_addr #3

; Function Attrs: argmemonly mustprogress nofree nosync nounwind willreturn
declare void @llvm.lifetime.end.p0i8(i64 immarg, i8* nocapture) #1


!llvm.module.flags = !{!0, !1, !2, !3}
!llvm.ident = !{!4}

!0 = !{i32 1, !"wchar_size", i32 4}
!1 = !{i32 7, !"PIC Level", i32 2}
!2 = !{i32 7, !"PIE Level", i32 2}
!3 = !{i32 7, !"uwtable", i32 1}
!4 = !{!"clang version 13.0.0"}
!5 = !{!6, !6, i64 0}
!6 = !{!"int", !7, i64 0}
!7 = !{!"omnipotent char", !8, i64 0}
!8 = !{!"Simple C/C++ TBAA"}
!9 = distinct !{!9, !10}
!10 = !{!"llvm.loop.mustprogress"}
!11 = distinct !{!11, !10}
!12 = distinct !{!12, !10}
